target datalayout = "e-m:e-p270:32:32-p271:32:32-p272:64:64-i64:64-i128:128-f80:128-n8:16:32:64-S128"
target triple = "x86_64-unknown-linux-gnu"

%"class.icu_75::TransliterationRule" = type { ptr, ptr, ptr, ptr, ptr, %"class.icu_75::UnicodeString", ptr, i32, i32, i32, i8, ptr }
%"class.icu_75::UnicodeString" = type { %"class.icu_75::Replaceable", %"union.icu_75::UnicodeString::StackBufferOrFields" }
%"class.icu_75::Replaceable" = type { %"class.icu_75::UObject" }
%"class.icu_75::UObject" = type { ptr }
%"union.icu_75::UnicodeString::StackBufferOrFields" = type { %struct.anon.0, [32 x i8] }
%struct.anon.0 = type { i16, i32, i32, ptr }

; Function Attrs: mustprogress nounwind uwtable
define noundef i32 @_ZNK6icu_7519TransliterationRule16getContextLengthEv(ptr noundef nonnull align 8 dereferenceable(136) %this) unnamed_addr #0 align 2 {
entry:
  %this.addr = alloca ptr, align 8
  store ptr %this, ptr %this.addr, align 8
  %this1 = load ptr, ptr %this.addr, align 8
  %anteContextLength = getelementptr inbounds %"class.icu_75::TransliterationRule", ptr %this1, i32 0, i32 8
  %0 = load i32, ptr %anteContextLength, align 4
  %flags = getelementptr inbounds %"class.icu_75::TransliterationRule", ptr %this1, i32 0, i32 10
  %1 = load i8, ptr %flags, align 4
  %conv = sext i8 %1 to i32
  %and = and i32 %conv, 1
  %tobool = icmp ne i32 %and, 0
  %cond = select i1 %tobool, i32 1, i32 0
  %add = add nsw i32 %0, %cond
  ret i32 %add
}