; Function Attrs: mustprogress nofree norecurse nosync nounwind willreturn memory(argmem: read) uwtable
define noundef i32 @_ZNK6icu_7519TransliterationRule16getContextLengthEv(ptr nocapture noundef nonnull readonly align 8 dereferenceable(136) %this) unnamed_addr #7 align 2 {
entry:
  %anteContextLength = getelementptr inbounds i8, ptr %this, i64 116
  %0 = load i32, ptr %anteContextLength, align 4
  %flags = getelementptr inbounds i8, ptr %this, i64 124
  %1 = load i8, ptr %flags, align 4
  %2 = and i8 %1, 1
  %cond = zext nneg i8 %2 to i32
  %add = add nsw i32 %0, %cond
  ret i32 %add
}